target datalayout = "e-m:e-p270:32:32-p271:32:32-p272:64:64-i64:64-i128:128-f80:128-n8:16:32:64-S128"
target triple = "x86_64-pc-linux-gnu"

@.str = private unnamed_addr constant [34 x i8] c"../openssl/crypto/provider_conf.c\00", align 1
@__func__.provider_conf_parse_bool_setting = private unnamed_addr constant [33 x i8] c"provider_conf_parse_bool_setting\00", align 1
@.str.7 = private unnamed_addr constant [39 x i8] c"directive %s set to unrecognized value\00", align 1
@.str.8 = private unnamed_addr constant [2 x i8] c"1\00", align 1
@.str.9 = private unnamed_addr constant [4 x i8] c"yes\00", align 1
@.str.10 = private unnamed_addr constant [4 x i8] c"YES\00", align 1
@.str.11 = private unnamed_addr constant [5 x i8] c"true\00", align 1
@.str.12 = private unnamed_addr constant [5 x i8] c"TRUE\00", align 1
@.str.13 = private unnamed_addr constant [3 x i8] c"on\00", align 1
@.str.14 = private unnamed_addr constant [3 x i8] c"ON\00", align 1
@.str.15 = private unnamed_addr constant [2 x i8] c"0\00", align 1
@.str.16 = private unnamed_addr constant [3 x i8] c"no\00", align 1
@.str.17 = private unnamed_addr constant [3 x i8] c"NO\00", align 1
@.str.18 = private unnamed_addr constant [6 x i8] c"false\00", align 1
@.str.19 = private unnamed_addr constant [6 x i8] c"FALSE\00", align 1
@.str.20 = private unnamed_addr constant [4 x i8] c"off\00", align 1
@.str.21 = private unnamed_addr constant [4 x i8] c"OFF\00", align 1

; Function Attrs: nounwind uwtable
define internal i32 @provider_conf_parse_bool_setting(ptr noundef %0, ptr noundef %1, ptr noundef %2) #0 {
  %4 = alloca i32, align 4
  %5 = alloca ptr, align 8
  %6 = alloca ptr, align 8
  %7 = alloca ptr, align 8
  store ptr %0, ptr %5, align 8, !tbaa !28
  store ptr %1, ptr %6, align 8, !tbaa !28
  store ptr %2, ptr %7, align 8, !tbaa !35
  %8 = load ptr, ptr %6, align 8, !tbaa !28
  %9 = icmp eq ptr %8, null
  br i1 %9, label %10, label %12

10:                                               ; preds = %3
  call void @ERR_new()
  call void @ERR_set_debug(ptr noundef @.str, i32 noundef 280, ptr noundef @__func__.provider_conf_parse_bool_setting)
  %11 = load ptr, ptr %5, align 8, !tbaa !28
  call void (i32, i32, ptr, ...) @ERR_set_error(i32 noundef 15, i32 noundef 105, ptr noundef @.str.7, ptr noundef %11)
  store i32 0, ptr %4, align 4
  br label %76

12:                                               ; preds = %3
  %13 = load ptr, ptr %6, align 8, !tbaa !28
  %14 = call i32 @strcmp(ptr noundef %13, ptr noundef @.str.8) #7
  %15 = icmp eq i32 %14, 0
  br i1 %15, label %40, label %16

16:                                               ; preds = %12
  %17 = load ptr, ptr %6, align 8, !tbaa !28
  %18 = call i32 @strcmp(ptr noundef %17, ptr noundef @.str.9) #7
  %19 = icmp eq i32 %18, 0
  br i1 %19, label %40, label %20

20:                                               ; preds = %16
  %21 = load ptr, ptr %6, align 8, !tbaa !28
  %22 = call i32 @strcmp(ptr noundef %21, ptr noundef @.str.10) #7
  %23 = icmp eq i32 %22, 0
  br i1 %23, label %40, label %24

24:                                               ; preds = %20
  %25 = load ptr, ptr %6, align 8, !tbaa !28
  %26 = call i32 @strcmp(ptr noundef %25, ptr noundef @.str.11) #7
  %27 = icmp eq i32 %26, 0
  br i1 %27, label %40, label %28

28:                                               ; preds = %24
  %29 = load ptr, ptr %6, align 8, !tbaa !28
  %30 = call i32 @strcmp(ptr noundef %29, ptr noundef @.str.12) #7
  %31 = icmp eq i32 %30, 0
  br i1 %31, label %40, label %32

32:                                               ; preds = %28
  %33 = load ptr, ptr %6, align 8, !tbaa !28
  %34 = call i32 @strcmp(ptr noundef %33, ptr noundef @.str.13) #7
  %35 = icmp eq i32 %34, 0
  br i1 %35, label %40, label %36

36:                                               ; preds = %32
  %37 = load ptr, ptr %6, align 8, !tbaa !28
  %38 = call i32 @strcmp(ptr noundef %37, ptr noundef @.str.14) #7
  %39 = icmp eq i32 %38, 0
  br i1 %39, label %40, label %42

40:                                               ; preds = %36, %32, %28, %24, %20, %16, %12
  %41 = load ptr, ptr %7, align 8, !tbaa !35
  store i32 1, ptr %41, align 4, !tbaa !20
  br label %75

42:                                               ; preds = %36
  %43 = load ptr, ptr %6, align 8, !tbaa !28
  %44 = call i32 @strcmp(ptr noundef %43, ptr noundef @.str.15) #7
  %45 = icmp eq i32 %44, 0
  br i1 %45, label %70, label %46

46:                                               ; preds = %42
  %47 = load ptr, ptr %6, align 8, !tbaa !28
  %48 = call i32 @strcmp(ptr noundef %47, ptr noundef @.str.16) #7
  %49 = icmp eq i32 %48, 0
  br i1 %49, label %70, label %50

50:                                               ; preds = %46
  %51 = load ptr, ptr %6, align 8, !tbaa !28
  %52 = call i32 @strcmp(ptr noundef %51, ptr noundef @.str.17) #7
  %53 = icmp eq i32 %52, 0
  br i1 %53, label %70, label %54

54:                                               ; preds = %50
  %55 = load ptr, ptr %6, align 8, !tbaa !28
  %56 = call i32 @strcmp(ptr noundef %55, ptr noundef @.str.18) #7
  %57 = icmp eq i32 %56, 0
  br i1 %57, label %70, label %58

58:                                               ; preds = %54
  %59 = load ptr, ptr %6, align 8, !tbaa !28
  %60 = call i32 @strcmp(ptr noundef %59, ptr noundef @.str.19) #7
  %61 = icmp eq i32 %60, 0
  br i1 %61, label %70, label %62

62:                                               ; preds = %58
  %63 = load ptr, ptr %6, align 8, !tbaa !28
  %64 = call i32 @strcmp(ptr noundef %63, ptr noundef @.str.20) #7
  %65 = icmp eq i32 %64, 0
  br i1 %65, label %70, label %66

66:                                               ; preds = %62
  %67 = load ptr, ptr %6, align 8, !tbaa !28
  %68 = call i32 @strcmp(ptr noundef %67, ptr noundef @.str.21) #7
  %69 = icmp eq i32 %68, 0
  br i1 %69, label %70, label %72

70:                                               ; preds = %66, %62, %58, %54, %50, %46, %42
  %71 = load ptr, ptr %7, align 8, !tbaa !35
  store i32 0, ptr %71, align 4, !tbaa !20
  br label %74

72:                                               ; preds = %66
  call void @ERR_new()
  call void @ERR_set_debug(ptr noundef @.str, i32 noundef 302, ptr noundef @__func__.provider_conf_parse_bool_setting)
  %73 = load ptr, ptr %5, align 8, !tbaa !28
  call void (i32, i32, ptr, ...) @ERR_set_error(i32 noundef 15, i32 noundef 105, ptr noundef @.str.7, ptr noundef %73)
  store i32 0, ptr %4, align 4
  br label %76

74:                                               ; preds = %70
  br label %75

75:                                               ; preds = %74, %40
  store i32 1, ptr %4, align 4
  br label %76

76:                                               ; preds = %75, %72, %10
  %77 = load i32, ptr %4, align 4
  ret i32 %77
}