; Function Attrs: nounwind uwtable
define internal fastcc range(i32 0, 2) i32 @provider_conf_parse_bool_setting(ptr noundef %0, ptr noundef readonly captures(address_is_null) %1, ptr noundef nonnull writeonly captures(none) %2) unnamed_addr #0 {
  %4 = icmp eq ptr %1, null
  br i1 %4, label %5, label %sub_0

5:                                                ; preds = %3
  tail call void @ERR_new() #5
  tail call void @ERR_set_debug(ptr noundef nonnull @.str, i32 noundef 280, ptr noundef nonnull @__func__.provider_conf_parse_bool_setting) #5
  tail call void (i32, i32, ptr, ...) @ERR_set_error(i32 noundef 15, i32 noundef 105, ptr noundef nonnull @.str.7, ptr noundef %0) #5
  br label %57

sub_0:                                            ; preds = %3
  %6 = load i8, ptr %1, align 1
  %.not = icmp eq i8 %6, 49
  br i1 %.not, label %.tail, label %.tail.thread

.tail:                                            ; preds = %sub_0
  %7 = getelementptr inbounds nuw i8, ptr %1, i64 1
  %8 = load i8, ptr %7, align 1
  %9 = icmp eq i8 %8, 0
  br i1 %9, label %56, label %.tail.thread

.tail.thread:                                     ; preds = %sub_0, %.tail
  %10 = tail call i32 @strcmp(ptr noundef nonnull dereferenceable(1) %1, ptr noundef nonnull dereferenceable(4) @.str.9) #6
  %11 = icmp eq i32 %10, 0
  br i1 %11, label %56, label %12

12:                                               ; preds = %.tail.thread
  %13 = tail call i32 @strcmp(ptr noundef nonnull dereferenceable(1) %1, ptr noundef nonnull dereferenceable(4) @.str.10) #6
  %14 = icmp eq i32 %13, 0
  br i1 %14, label %56, label %15

15:                                               ; preds = %12
  %16 = tail call i32 @strcmp(ptr noundef nonnull dereferenceable(1) %1, ptr noundef nonnull dereferenceable(5) @.str.11) #6
  %17 = icmp eq i32 %16, 0
  br i1 %17, label %56, label %18

18:                                               ; preds = %15
  %19 = tail call i32 @strcmp(ptr noundef nonnull dereferenceable(1) %1, ptr noundef nonnull dereferenceable(5) @.str.12) #6
  %20 = icmp eq i32 %19, 0
  br i1 %20, label %56, label %sub_021

sub_021:                                          ; preds = %18
  switch i8 %6, label %.tail38.thread [
    i8 111, label %sub_122
    i8 79, label %sub_126
    i8 48, label %.tail29
    i8 110, label %sub_135
    i8 78, label %sub_140
  ]

sub_122:                                          ; preds = %sub_021
  %21 = getelementptr inbounds nuw i8, ptr %1, i64 1
  %22 = load i8, ptr %21, align 1
  %.not44 = icmp eq i8 %22, 110
  br i1 %.not44, label %.tail20, label %.tail38.thread

.tail20:                                          ; preds = %sub_122
  %23 = getelementptr inbounds nuw i8, ptr %1, i64 2
  %24 = load i8, ptr %23, align 1
  %25 = icmp eq i8 %24, 0
  br i1 %25, label %56, label %.tail38.thread

sub_126:                                          ; preds = %sub_021
  %26 = getelementptr inbounds nuw i8, ptr %1, i64 1
  %27 = load i8, ptr %26, align 1
  %.not46 = icmp eq i8 %27, 78
  br i1 %.not46, label %.tail24, label %.tail38.thread

.tail24:                                          ; preds = %sub_126
  %28 = getelementptr inbounds nuw i8, ptr %1, i64 2
  %29 = load i8, ptr %28, align 1
  %30 = icmp eq i8 %29, 0
  br i1 %30, label %56, label %.tail38.thread

.tail29:                                          ; preds = %sub_021
  %31 = getelementptr inbounds nuw i8, ptr %1, i64 1
  %32 = load i8, ptr %31, align 1
  %33 = icmp eq i8 %32, 0
  br i1 %33, label %56, label %.tail38.thread

sub_135:                                          ; preds = %sub_021
  %34 = getelementptr inbounds nuw i8, ptr %1, i64 1
  %35 = load i8, ptr %34, align 1
  %.not49 = icmp eq i8 %35, 111
  br i1 %.not49, label %.tail33, label %.tail38.thread

.tail33:                                          ; preds = %sub_135
  %36 = getelementptr inbounds nuw i8, ptr %1, i64 2
  %37 = load i8, ptr %36, align 1
  %38 = icmp eq i8 %37, 0
  br i1 %38, label %56, label %.tail38.thread

sub_140:                                          ; preds = %sub_021
  %39 = getelementptr inbounds nuw i8, ptr %1, i64 1
  %40 = load i8, ptr %39, align 1
  %.not51 = icmp eq i8 %40, 79
  br i1 %.not51, label %.tail38, label %.tail38.thread

.tail38:                                          ; preds = %sub_140
  %41 = getelementptr inbounds nuw i8, ptr %1, i64 2
  %42 = load i8, ptr %41, align 1
  %43 = icmp eq i8 %42, 0
  br i1 %43, label %56, label %.tail38.thread

.tail38.thread:                                   ; preds = %sub_021, %.tail20, %sub_122, %sub_126, %.tail29, %.tail24, %sub_135, %.tail33, %sub_140, %.tail38
  %44 = tail call i32 @strcmp(ptr noundef nonnull dereferenceable(1) %1, ptr noundef nonnull dereferenceable(6) @.str.18) #6
  %45 = icmp eq i32 %44, 0
  br i1 %45, label %56, label %46

46:                                               ; preds = %.tail38.thread
  %47 = tail call i32 @strcmp(ptr noundef nonnull dereferenceable(1) %1, ptr noundef nonnull dereferenceable(6) @.str.19) #6
  %48 = icmp eq i32 %47, 0
  br i1 %48, label %56, label %49

49:                                               ; preds = %46
  %50 = tail call i32 @strcmp(ptr noundef nonnull dereferenceable(1) %1, ptr noundef nonnull dereferenceable(4) @.str.20) #6
  %51 = icmp eq i32 %50, 0
  br i1 %51, label %56, label %52

52:                                               ; preds = %49
  %53 = tail call i32 @strcmp(ptr noundef nonnull dereferenceable(1) %1, ptr noundef nonnull dereferenceable(4) @.str.21) #6
  %54 = icmp eq i32 %53, 0
  br i1 %54, label %56, label %55

55:                                               ; preds = %52
  tail call void @ERR_new() #5
  tail call void @ERR_set_debug(ptr noundef nonnull @.str, i32 noundef 302, ptr noundef nonnull @__func__.provider_conf_parse_bool_setting) #5
  tail call void (i32, i32, ptr, ...) @ERR_set_error(i32 noundef 15, i32 noundef 105, ptr noundef nonnull @.str.7, ptr noundef %0) #5
  br label %57

56:                                               ; preds = %.tail29, %.tail33, %.tail38, %.tail38.thread, %46, %49, %52, %.tail, %.tail.thread, %12, %15, %18, %.tail20, %.tail24
  %storemerge = phi i32 [ 1, %.tail24 ], [ 1, %.tail20 ], [ 1, %18 ], [ 1, %15 ], [ 1, %12 ], [ 1, %.tail.thread ], [ 1, %.tail ], [ 0, %52 ], [ 0, %49 ], [ 0, %46 ], [ 0, %.tail38.thread ], [ 0, %.tail38 ], [ 0, %.tail33 ], [ 0, %.tail29 ]
  store i32 %storemerge, ptr %2, align 4, !tbaa !16
  br label %57

57:                                               ; preds = %56, %55, %5
  %.0 = phi i32 [ 0, %5 ], [ 1, %56 ], [ 0, %55 ]
  ret i32 %.0
}